target datalayout = "e-m:e-p270:32:32-p271:32:32-p272:64:64-i64:64-i128:128-f80:128-n8:16:32:64-S128"
target triple = "x86_64-pc-linux-gnu"

%struct.Vec_Ptr_t_ = type { i32, i32, ptr }

@.str.13 = private unnamed_addr constant [1 x i8] zeroinitializer, align 1
@.str.14 = private unnamed_addr constant [5 x i8] c"  %s\00", align 1
@.str.15 = private unnamed_addr constant [6 x i8] c" %s (\00", align 1
@.str.16 = private unnamed_addr constant [10 x i8] c".%s(%s)%s\00", align 1
@.str.17 = private unnamed_addr constant [3 x i8] c", \00", align 1
@.str.18 = private unnamed_addr constant [4 x i8] c");\0A\00", align 1

; Function Attrs: nounwind uwtable
define internal i32 @Vec_PtrSize(ptr noundef %0) #0 {
  %2 = alloca ptr, align 8
  store ptr %0, ptr %2, align 8
  %3 = load ptr, ptr %2, align 8
  %4 = getelementptr inbounds %struct.Vec_Ptr_t_, ptr %3, i32 0, i32 1
  %5 = load i32, ptr %4, align 4
  ret i32 %5
}

; Function Attrs: nounwind uwtable
define internal ptr @Vec_PtrEntry(ptr noundef %0, i32 noundef %1) #0 {
  %3 = alloca ptr, align 8
  %4 = alloca i32, align 4
  store ptr %0, ptr %3, align 8
  store i32 %1, ptr %4, align 4
  %5 = load ptr, ptr %3, align 8
  %6 = getelementptr inbounds %struct.Vec_Ptr_t_, ptr %5, i32 0, i32 2
  %7 = load ptr, ptr %6, align 8
  %8 = load i32, ptr %4, align 4
  %9 = sext i32 %8 to i64
  %10 = getelementptr inbounds ptr, ptr %7, i64 %9
  %11 = load ptr, ptr %10, align 8
  ret ptr %11
}

; Function Attrs: nounwind uwtable
define void @Bac_PtrDumpBoxVerilog(ptr noundef %0, ptr noundef %1) #0 {
  %3 = alloca ptr, align 8
  %4 = alloca ptr, align 8
  %5 = alloca ptr, align 8
  %6 = alloca i32, align 4
  store ptr %0, ptr %3, align 8
  store ptr %1, ptr %4, align 8
  %7 = load ptr, ptr %3, align 8
  %8 = load ptr, ptr %4, align 8
  %9 = call ptr @Vec_PtrEntry(ptr noundef %8, i32 noundef 0)
  %10 = call i32 (ptr, ptr, ...) @fprintf(ptr noundef %7, ptr noundef @.str.14, ptr noundef %9) #9
  %11 = load ptr, ptr %3, align 8
  %12 = load ptr, ptr %4, align 8
  %13 = call ptr @Vec_PtrEntry(ptr noundef %12, i32 noundef 1)
  %14 = call i32 (ptr, ptr, ...) @fprintf(ptr noundef %11, ptr noundef @.str.15, ptr noundef %13) #9
  store i32 2, ptr %6, align 4
  br label %15

15:                                               ; preds = %42, %2
  %16 = load i32, ptr %6, align 4
  %17 = load ptr, ptr %4, align 8
  %18 = call i32 @Vec_PtrSize(ptr noundef %17)
  %19 = icmp slt i32 %16, %18
  br i1 %19, label %20, label %24

20:                                               ; preds = %15
  %21 = load ptr, ptr %4, align 8
  %22 = load i32, ptr %6, align 4
  %23 = call ptr @Vec_PtrEntry(ptr noundef %21, i32 noundef %22)
  store ptr %23, ptr %5, align 8
  br label %24

24:                                               ; preds = %20, %15
  %25 = phi i1 [ false, %15 ], [ true, %20 ]
  br i1 %25, label %26, label %45

26:                                               ; preds = %24
  %27 = load ptr, ptr %3, align 8
  %28 = load ptr, ptr %5, align 8
  %29 = load ptr, ptr %4, align 8
  %30 = load i32, ptr %6, align 4
  %31 = add nsw i32 %30, 1
  %32 = call ptr @Vec_PtrEntry(ptr noundef %29, i32 noundef %31)
  %33 = load i32, ptr %6, align 4
  %34 = load ptr, ptr %4, align 8
  %35 = call i32 @Vec_PtrSize(ptr noundef %34)
  %36 = sub nsw i32 %35, 2
  %37 = icmp slt i32 %33, %36
  %38 = select i1 %37, ptr @.str.17, ptr @.str.13
  %39 = call i32 (ptr, ptr, ...) @fprintf(ptr noundef %27, ptr noundef @.str.16, ptr noundef %28, ptr noundef %32, ptr noundef %38) #9
  %40 = load i32, ptr %6, align 4
  %41 = add nsw i32 %40, 1
  store i32 %41, ptr %6, align 4
  br label %42

42:                                               ; preds = %26
  %43 = load i32, ptr %6, align 4
  %44 = add nsw i32 %43, 1
  store i32 %44, ptr %6, align 4
  br label %15, !llvm.loop !14

45:                                               ; preds = %24
  %46 = load ptr, ptr %3, align 8
  %47 = call i32 (ptr, ptr, ...) @fprintf(ptr noundef %46, ptr noundef @.str.18) #9
  ret void
}