; Function Attrs: nofree nounwind uwtable
define void @Bac_PtrDumpBoxVerilog(ptr noundef captures(none) %0, ptr noundef readonly captures(none) %1) local_unnamed_addr #3 {
  %3 = getelementptr i8, ptr %1, i64 8
  %.val18 = load ptr, ptr %3, align 8
  %4 = load ptr, ptr %.val18, align 8
  %5 = tail call i32 (ptr, ptr, ...) @fprintf(ptr noundef %0, ptr noundef nonnull @.str.14, ptr noundef %4) #14
  %.val17 = load ptr, ptr %3, align 8
  %6 = getelementptr inbounds nuw i8, ptr %.val17, i64 8
  %7 = load ptr, ptr %6, align 8
  %8 = tail call i32 (ptr, ptr, ...) @fprintf(ptr noundef %0, ptr noundef nonnull @.str.15, ptr noundef %7) #14
  %9 = getelementptr i8, ptr %1, i64 4
  %.val2021 = load i32, ptr %9, align 4
  %10 = icmp sgt i32 %.val2021, 2
  br i1 %10, label %.lr.ph, label %.critedge

.lr.ph:                                           ; preds = %2, %.lr.ph
  %indvars.iv = phi i64 [ %indvars.iv.next, %.lr.ph ], [ 2, %2 ]
  %.val2023 = phi i32 [ %.val20, %.lr.ph ], [ %.val2021, %2 ]
  %.val16 = load ptr, ptr %3, align 8
  %11 = getelementptr inbounds nuw ptr, ptr %.val16, i64 %indvars.iv
  %12 = load ptr, ptr %11, align 8
  %13 = or disjoint i64 %indvars.iv, 1
  %14 = getelementptr inbounds nuw ptr, ptr %.val16, i64 %13
  %15 = load ptr, ptr %14, align 8
  %16 = add nsw i32 %.val2023, -2
  %17 = sext i32 %16 to i64
  %18 = icmp slt i64 %indvars.iv, %17
  %19 = select i1 %18, ptr @.str.17, ptr @.str.13
  %20 = tail call i32 (ptr, ptr, ...) @fprintf(ptr noundef %0, ptr noundef nonnull @.str.16, ptr noundef %12, ptr noundef %15, ptr noundef nonnull %19) #14
  %indvars.iv.next = add nuw nsw i64 %indvars.iv, 2
  %.val20 = load i32, ptr %9, align 4
  %21 = trunc nuw i64 %indvars.iv.next to i32
  %22 = icmp sgt i32 %.val20, %21
  br i1 %22, label %.lr.ph, label %.critedge, !llvm.loop !14

.critedge:                                        ; preds = %.lr.ph, %2
  %23 = tail call i64 @fwrite(ptr nonnull @.str.18, i64 3, i64 1, ptr %0)
  ret void
}